(dp0
S'VectorGraphics'
p1
(lp2
(dp3
S'comment'
p4
S'Mount Disk Images'
p5
sS'name'
p6
S'Disk Image Mounter'
p7
sS'exec'
p8
S'gnome-disk-image-mounter %U'
p9
sS'terminal'
p10
S'false'
p11
sS'categories'
p12
S'Office;FlowChart;Graphics;2DGraphics;VectorGraphics;X-Red-Hat-Base;X-MandrivaLinux-Office-Drawing;'
p13
sS'icon'
p14
S'drive-removable-media'
p15
sa(dp16
g4
S'View multi-page documents'
p17
sg6
S'Document Viewer'
p18
sg8
S'evince %U'
p19
sg10
S'false'
p20
sg12
S'GNOME;GTK;Office;Viewer;Graphics;2DGraphics;VectorGraphics;'
p21
sg14
S'evince'
p22
sa(dp23
g4
S'Create and edit drawings, flow charts and logos by using Draw.'
p24
sg6
S'LibreOffice Draw'
p25
sg8
S'libreoffice --draw %U'
p26
sg10
S'false'
p27
sg12
g13
sg14
S'libreoffice-draw'
p28
sa(dp29
g4
S'Preview before printing'
p30
sg6
S'Print Preview'
p31
sg8
S'evince-previewer %U'
p32
sg10
S'false'
p33
sg12
S'GNOME;GTK;Office;Viewer;Graphics;2DGraphics;VectorGraphics;'
p34
sg14
S'document-print-preview'
p35
sasS'DiscBurning'
p36
(lp37
(dp38
g4
S'Create and copy CDs and DVDs'
p39
sg6
S'Brasero'
p40
sg8
S'brasero %U'
p41
sg10
S'false'
p42
sg12
S'GTK;GNOME;AudioVideo;DiscBurning;'
p43
sg14
S'brasero'
p44
sa(dp45
g4
g39
sg6
S'Unity Webapps QML Test Launcher'
p46
sg8
S'/usr/bin/unity-webapps-qml-launcher $@'
p47
sg10
S'false'
p48
sg12
g43
sg14
S'qmlscene'
p49
sasS'InstantMessaging'
p50
(lp51
(dp52
g4
S'Chat on Google Talk, Facebook, MSN and many other chat services'
p53
sg6
S'Empathy'
p54
sg8
S'empathy'
p55
sg10
S'false'
p56
sg12
S'GNOME;GTK;Network;InstantMessaging;'
p57
sg14
S'empathy'
p58
sa(dp59
g4
S'Chat over IM.  Supports AIM, Google Talk, Jabber/XMPP, MSN, Yahoo and more'
p60
sg6
S'Pidgin Internet Messenger'
p61
sg8
S'pidgin'
p62
sg10
S'false'
p63
sg12
S'Network;InstantMessaging;'
p64
sg14
S'pidgin'
p65
sasS'Monitor'
p66
(lp67
(dp68
g4
S'View current processes and monitor system state'
p69
sg6
S'GNOME System Monitor'
p70
sg8
S'gnome-system-monitor'
p71
sg10
S'false'
p72
sg12
S'GNOME;GTK;System;Monitor;'
p73
sg14
S'utilities-system-monitor'
p74
sa(dp75
g4
S'Observe power management'
p76
sg6
S'Power Statistics'
p77
sg8
S'gnome-power-statistics'
p78
sg10
S'false'
p79
sg12
S'GNOME;GTK;System;Monitor;'
p80
sg14
S'gnome-power-statistics'
p81
sa(dp82
g4
S'View or monitor system log files'
p83
sg6
S'System Log'
p84
sg8
S'gnome-system-log-pkexec'
p85
sg10
S'false'
p86
sg12
S'GTK;GNOME;System;Monitor;'
p87
sg14
S'logview'
p88
sa(dp89
g4
S'View current processes and monitor system state'
p90
sg6
S'System Monitor'
p91
sg8
S'gnome-system-monitor'
p92
sg10
S'false'
p93
sg12
S'GNOME;GTK;System;Monitor;'
p94
sg14
S'utilities-system-monitor'
p95
sasS'X-GNOME-Settings-Panel'
p96
(lp97
(dp98
g4
S'Change your backup settings'
p99
sg6
S'Archive Mounter'
p100
sg8
S'/usr/lib/gvfs/gvfsd-archive file=%u'
p101
sg10
S'false'
p102
sg12
S'Settings;Utility;Archiving;GNOME;GTK;X-GNOME-SystemSettings;X-GNOME-Settings-Panel;'
p103
sg14
S'deja-dup'
p104
sa(dp105
g4
g99
sg6
S'Backups'
p106
sg8
S'gnome-control-center deja-dup'
p107
sg10
S'false'
p108
sg12
g103
sg14
g104
sa(dp109
g4
S'Landscape Management Service Preferences'
p110
sg6
S'Landscape Service'
p111
sg8
S'landscape-client-ui-install'
p112
sg10
S'False'
p113
sg12
S'GNOME;GTK;Settings;X-GNOME-SystemSettings;X-GNOME-Settings-Panel;X-Unity-Settings-Panel;'
p114
sg14
S'preferences-management-service'
p115
sa(dp116
g4
S'Configure multiple and native language support on your system'
p117
sg6
S'Language Support'
p118
sg8
S'/usr/bin/gnome-language-selector'
p119
sg10
S'false'
p120
sg12
S'GNOME;GTK;Settings;DesktopSettings;X-GNOME-Settings-Panel;X-Unity-Settings-Panel;X-GNOME-PersonalSettings'
p121
sg14
S'preferences-desktop-locale'
p122
sa(dp123
g4
S'Configure printers'
p124
sg6
S'Printers'
p125
sg8
S'system-config-printer'
p126
sg10
S'false'
p127
sg12
S'GNOME;GTK;Settings;HardwareSettings;X-GNOME-Settings-Panel;X-Unity-Settings-Panel;System;Printing;'
p128
sg14
S'printer'
p129
sa(dp130
g4
S'Privacy and Activity Manager'
p131
sg6
S'Security & Privacy'
p132
sg8
S'gnome-control-center activity-log-manager'
p133
sg10
S'false'
p134
sg12
S'GNOME;GTK;System;Archiving;Utility;Settings;X-GNOME-PersonalSettings;X-GNOME-Settings-Panel;'
p135
sg14
S'activity-log-manager'
p136
sa(dp137
g4
S'Configure the sources for installable software and updates'
p138
sg6
S'Software & Updates'
p139
sg8
S'software-properties-gtk'
p140
sg10
S'false'
p141
sg12
S'GNOME;GTK;Settings;X-GNOME-SystemSettings;X-GNOME-Settings-Panel;X-Unity-Settings-Panel;'
p142
sg14
S'software-properties'
p143
sasS'FileTools'
p144
(lp145
(dp146
g4
S'Send files via Bluetooth'
p147
sg6
S'Bluetooth Transfer'
p148
sg8
S'bluetooth-sendto'
p149
sg10
S'false'
p150
sg12
S'GTK;GNOME;Utility;FileTools;'
p151
sg14
S'bluetooth'
p152
sa(dp153
g4
S'Configure items to be added to the Nautilus context menus'
p154
sg6
S'Nautilus-Actions Configuration Tool'
p155
sg8
S'nautilus-actions-config-tool'
p156
sg10
S'false'
p157
sg12
S'System;FileTools;FileManager;'
p158
sg14
S'nautilus-actions'
p159
sasS'RasterGraphics'
p160
(lp161
(dp162
g4
S'A small-scale painting program for GNOME, the GNU Desktop'
p163
sg6
S'GNU Paint'
p164
sg8
S'gpaint'
p165
sg10
S'0'
p166
sg12
S'Graphics;2DGraphics;RasterGraphics;'
p167
sg14
S'gpaint.svg'
p168
sa(dp169
g4
S'Browse and rotate images'
p170
sg6
S'Image Viewer'
p171
sg8
S'eog %U'
p172
sg10
S'false'
p173
sg12
S'GNOME;GTK;Graphics;2DGraphics;RasterGraphics;Viewer;'
p174
sg14
S'eog'
p175
sasS'System'
p176
(lp177
(dp178
g4
S'Unlock access to passwords and other secrets'
p179
sg6
S'Access Prompt'
p180
sg8
S'/usr/lib/gcr/gcr-prompter'
p181
sg10
S'false'
p182
sg12
S'System;Settings;'
p183
sg14
S'security-medium'
p184
sa(dp185
g4
S'Lets you choose from thousands of applications available for Ubuntu'
p186
sg6
S'AptURL'
p187
sg8
S'apturl %u'
p188
sg10
S'false'
p189
sg12
S'System;'
p190
sg14
S'softwarecenter'
p191
sa(dp192
g4
S'Create CDs and DVDs'
p193
sg6
S'CD/DVD Creator'
p194
sg8
S'nautilus --no-default-window --no-desktop burn:///'
p195
sg10
S'false'
p196
sg12
S'GNOME;GTK;System;'
p197
sg14
S'system-file-manager'
p198
sa(dp199
g4
S'Check folder sizes and available disk space'
p200
sg6
S'Disk Usage Analyzer'
p201
sg8
S'baobab'
p202
sg10
S'false'
p203
sg12
S'GTK;GNOME;System;Filesystem;'
p204
sg14
S'baobab'
p205
sa(dp206
g4
S'Required to have EDS appear in UOA'
p207
sg6
S'Evolution Data Server'
p208
sg8
S'/usr/bin/gcr-viewer'
p209
sg10
S'false'
p210
sg12
g197
sg14
g198
sag68
a(dp211
g4
S'Create, reorganize, and delete partitions'
p212
sg6
S'GParted'
p213
sg8
S'gparted-pkexec'
p214
sg10
S'false'
p215
sg12
S'GNOME;System;Filesystem;Settings;'
p216
sg14
S'gparted'
p217
sa(dp218
g4
S'Preview keyboard layouts'
p219
sg6
S'Keyboard Layout'
p220
sg8
S'gkbd-keyboard-display'
p221
sg10
g157
sg12
S'GNOME;GTK;Core;System;'
p222
sg14
S'preferences-desktop-keyboard'
p223
sa(dp224
g4
S'Configure NVIDIA X Server Settings'
p225
sg6
S'NVIDIA X Server Settings'
p226
sg8
S'/usr/bin/nvidia-settings'
p227
sg10
S'false'
p228
sg12
S'System;Settings;'
p229
sg14
S'nvidia-settings'
p230
sag153
a(dp231
g4
S'View information about your network'
p232
sg6
S'Network Tools'
p233
sg8
S'gnome-nettool'
p234
sg10
S'false'
p235
sg12
S'System;Utility;GNOME;GTK;'
p236
sg14
S'gnome-nettool'
p237
sag75
ag123
a(dp238
g4
S'Click the button in this program when your printer ran out of paper and you have refilled the paper'
p239
sg6
S'Reactivate HP LaserJet 1018/1020 after reloading paper'
p240
sg8
S'/usr/share/foo2zjs/hplj10xx_gui.tcl'
p241
sg10
S'false'
p242
sg12
S'System;'
p243
sg14
S'/usr/share/pixmaps/hplj1020_icon.png'
p244
sag130
a(dp245
g4
S'Privacy and Activity Manager'
p246
sg6
S'Security & Privacy'
p247
sg8
S'unity-control-center activity-log-manager'
p248
sg10
S'false'
p249
sg12
S'GNOME;GTK;System;Archiving;Utility;Settings;X-GNOME-PersonalSettings;X-Unity-Settings-Panel;'
p250
sg14
S'activity-log-manager'
p251
sa(dp252
g4
S'Show and install available updates'
p253
sg6
S'Software Updater'
p254
sg8
S'/usr/bin/update-manager'
p255
sg10
S'false'
p256
sg12
g183
sg14
S'system-software-update'
p257
sa(dp258
g4
S'Create a startup disk using a CD or disc image'
p259
sg6
S'Startup Disk Creator'
p260
sg8
S'usb-creator-gtk'
p261
sg10
S'false'
p262
sg12
S'System;Settings;GTK;HardwareSettings;'
p263
sg14
S'usb-creator-gtk'
p264
sag82
ag89
a(dp265
g4
S'Browse the web'
p266
sg6
S'System Settings'
p267
sg8
S'unity-control-center --overview'
p268
sg10
S'false'
p269
sg12
S'GNOME;GTK;System;'
p270
sg14
S'preferences-system'
p271
sa(dp272
g4
S'Test your systems compatibility with Ubuntu.'
p273
sg6
S'System Testing'
p274
sg8
S'checkbox-gui'
p275
sg10
g228
sg12
S'System;Qt;Application'
p276
sg14
S'checkbox'
p277
sa(dp278
g4
S'standard terminal emulator for the X window system'
p279
sg6
S'UXTerm'
p280
sg8
S'uxterm'
p281
sg10
S'false'
p282
sg12
S'System;TerminalEmulator;Utility;'
p283
sg14
S'xterm-color'
p284
sa(dp285
g4
g186
sg6
S'Ubuntu Software Center'
p286
sg8
S'/usr/bin/software-center %u'
p287
sg10
g189
sg12
S'PackageManager;GTK;System;Settings;'
p288
sg14
g191
sa(dp289
g4
S'Add or remove users'
p290
sg6
S'User Accounts'
p291
sg8
S'unity-control-center user-accounts'
p292
sg10
S'false'
p293
sg12
S'System;Settings;X-Unity-Settings-Panel;X-GNOME-SystemSettings'
p294
sg14
S'system-users'
p295
sa(dp296
g4
g193
sg6
S'View file'
p297
sg8
g209
sg10
g210
sg12
g197
sg14
g198
sa(dp298
g4
S'standard terminal emulator for the X window system'
p299
sg6
S'XTerm'
p300
sg8
S'xterm'
p301
sg10
S'false'
p302
sg12
S'System;TerminalEmulator;Utility;'
p303
sg14
S'xterm-color'
p304
sa(dp305
g4
S'X.org Diagnostic and Repair Utility'
p306
sg6
S'xdiagnose'
p307
sg8
S'pkexec xdiagnose'
p308
sg10
S'false'
p309
sg12
S'System;Settings;'
p310
sg14
S'/usr/share/xdiagnose/icons/microscope.svg'
p311
sasS'Application'
p312
(lp313
(dp314
g4
S'A viewer for comic book archives'
p315
sg6
S'Comix'
p316
sg8
S'comix %f'
p317
sg10
S'false'
p318
sg12
S'Application;Graphics;Viewer;'
p319
sg14
S'comix'
p320
sag272
a(dp321
g4
S'Send and receive mail with Thunderbird'
p322
sg6
S'Thunderbird Mail'
p323
sg8
S'thunderbird %u'
p324
sg10
S'false'
p325
sg12
S'Application;Network;Email;'
p326
sg14
S'thunderbird'
p327
sa(dp328
g4
S'Utiliser la reconnaissance vocale de Google'
p329
sg6
S'google2ubuntu'
p330
sg8
S'/usr/share/google2ubuntu/google2ubuntu.py'
p331
sg10
S'false'
p332
sg12
S'Application'
p333
sg14
S'/usr/share/google2ubuntu/resources/icons.png'
p334
sa(dp335
g4
S'google2ubuntu manager'
p336
sg6
S'google2ubuntu-manager'
p337
sg8
S'/usr/share/google2ubuntu/google2ubuntu-manager.py'
p338
sg10
S'false'
p339
sg12
g312
sg14
S'/usr/share/google2ubuntu/resources/icons.png'
p340
sasS'X-GNOME-NetworkSettings'
p341
(lp342
(dp343
g4
S'Configure Bluetooth settings'
p344
sg6
S'Bluetooth'
p345
sg8
S'unity-control-center bluetooth'
p346
sg10
S'false'
p347
sg12
S'GTK;GNOME;Settings;X-GNOME-NetworkSettings;HardwareSettings;X-Unity-Settings-Panel;'
p348
sg14
S'bluetooth'
p349
sa(dp350
g4
S'Choose how other users can remotely view your desktop'
p351
sg6
S'Desktop Sharing'
p352
sg8
S'vino-preferences'
p353
sg10
S'false'
p354
sg12
S'GNOME;GTK;Settings;X-GNOME-NetworkSettings;RemoteAccess;Network;'
p355
sg14
S'preferences-desktop-remote-desktop'
p356
sa(dp357
g4
S'Manage and change your network connection settings'
p358
sg6
S'Network Connections'
p359
sg8
S'nm-connection-editor'
p360
sg10
S'false'
p361
sg12
S'GNOME;GTK;Settings;X-GNOME-NetworkSettings;'
p362
sg14
S'preferences-system-network'
p363
sa(dp364
g4
S'Preferences for sharing of files'
p365
sg6
S'Personal File Sharing'
p366
sg8
S'gnome-file-share-properties'
p367
sg10
S'false'
p368
sg12
S'GNOME;Settings;X-GNOME-NetworkSettings;'
p369
sg14
S'folder-remote'
p370
sa(dp371
g4
S'Connect to remote desktops'
p372
sg6
S'Remmina'
p373
sg8
S'remmina'
p374
sg10
S'false'
p375
sg12
S'GTK;GNOME;X-GNOME-NetworkSettings;Network;'
p376
sg14
S'remmina'
p377
sasS'WebBrowser'
p378
(lp379
(dp380
g4
S'Browse the World Wide Web'
p381
sg6
S'Browser'
p382
sg8
S'webbrowser-app %u'
p383
sg10
S'false'
p384
sg12
S'Network;WebBrowser;'
p385
sg14
S'webbrowser-app'
p386
sa(dp387
g4
S'Browse the World Wide Web'
p388
sg6
S'Firefox Web Browser'
p389
sg8
S'firefox %u'
p390
sg10
S'false'
p391
sg12
S'GNOME;GTK;Network;WebBrowser;'
p392
sg14
S'firefox'
p393
sa(dp394
g4
S'Access the Internet'
p395
sg6
S'Google Chrome'
p396
sg8
S'/usr/bin/google-chrome-stable %U'
p397
sg10
S'false'
p398
sg12
S'Network;WebBrowser;'
p399
sg14
S'google-chrome'
p400
sasS'TerminalEmulator'
p401
(lp402
(dp403
g4
S'Use the command line'
p404
sg6
S'Terminal'
p405
sg8
S'gnome-terminal'
p406
sg10
S'false'
p407
sg12
S'GNOME;GTK;Utility;TerminalEmulator;'
p408
sg14
S'utilities-terminal'
p409
sag278
ag298
asS'AudioVideo'
p410
(lp411
(dp412
g4
S'Listen to music'
p413
sg6
S'Audacious'
p414
sg8
S'audacious %U'
p415
sg10
S'false'
p416
sg12
S'AudioVideo;Audio;Player;GTK;'
p417
sg14
S'audacious'
p418
sag38
a(dp419
g4
S'Take photos and videos with your webcam, with fun graphical effects'
p420
sg6
S'Cheese'
p421
sg8
S'cheese'
p422
sg10
S'false'
p423
sg12
S'GNOME;AudioVideo;Video;Recorder;'
p424
sg14
S'cheese'
p425
sa(dp426
g4
S'Plays music and last.fm streams'
p427
sg6
S'Clementine'
p428
sg8
S'clementine %U'
p429
sg10
S'false'
p430
sg12
S'AudioVideo;Player;Qt;'
p431
sg14
S'application-x-clementine'
p432
sa(dp433
g4
S'Set ibus-pinyin Preferences'
p434
sg6
S'IBus Pinyin Setup'
p435
sg8
S'/usr/lib/ibus/ibus-setup-pinyin'
p436
sg10
g228
sg12
S'AudioVideo;AudioVideoEditing;'
p437
sg14
S'/usr/share/ibus-pinyin/icons/ibus-pinyin.svg'
p438
sa(dp439
g4
S'Adjust the volume level'
p440
sg6
S'PulseAudio Volume Control'
p441
sg8
S'pavucontrol'
p442
sg10
g210
sg12
S'AudioVideo;Audio;Mixer;GTK;'
p443
sg14
S'multimedia-volume-control'
p444
sa(dp445
g4
S'Play and organize your music collection'
p446
sg6
S'Rhythmbox'
p447
sg8
S'rhythmbox %U'
p448
sg10
S'false'
p449
sg12
S'GNOME;GTK;AudioVideo;Audio;Player;'
p450
sg14
S'rhythmbox'
p451
sa(dp452
g4
S'Play and organize your music collection'
p453
sg6
S'Rhythmbox'
p454
sg8
S'rhythmbox-client --select-source %U'
p455
sg10
S'false'
p456
sg12
S'GNOME;GTK;AudioVideo;'
p457
sg14
S'rhythmbox'
p458
sag45
a(dp459
g4
S'Read, capture, broadcast your multimedia streams'
p460
sg6
S'VLC media player'
p461
sg8
S'/usr/bin/vlc --started-from-file %U'
p462
sg10
S'false'
p463
sg12
S'AudioVideo;Player;Recorder;'
p464
sg14
S'vlc'
p465
sa(dp466
g4
S'Play movies'
p467
sg6
S'Videos'
p468
sg8
S'totem %U'
p469
sg10
S'false'
p470
sg12
S'GTK;GNOME;AudioVideo;Player;Video;'
p471
sg14
S'totem'
p472
sa(dp473
g4
g212
sg6
S'mkvinfo'
p474
sg8
S'mkvinfo -g %f'
p475
sg10
g228
sg12
g437
sg14
S'mkvinfo'
p476
sa(dp477
g4
g306
sg6
S'mkvmerge GUI'
p478
sg8
S'mmg %F'
p479
sg10
S'false'
p480
sg12
S'GNOME;AudioVideo;AudioVideoEditing;'
p481
sg14
S'mkvmergeGUI'
p482
sasS'WordProcessor'
p483
(lp484
(dp485
g4
S'Create and edit text and graphics in letters, reports, documents and Web pages by using Writer.'
p486
sg6
S'LibreOffice Writer'
p487
sg8
S'libreoffice --writer %U'
p488
sg10
S'false'
p489
sg12
S'Office;WordProcessor;X-Red-Hat-Base;X-MandrivaLinux-Office-Wordprocessors;'
p490
sg14
S'libreoffice-writer'
p491
sasS'Recorder'
p492
(lp493
g419
ag459
asS'X-GNOME-PersonalSettings'
p494
(lp495
(dp496
g4
S'Change the background and the theme'
p497
sg6
S'Appearance'
p498
sg8
S'unity-control-center appearance'
p499
sg10
S'false'
p500
sg12
S'GNOME;GTK;Settings;DesktopSettings;X-Unity-Settings-Panel;X-GNOME-PersonalSettings'
p501
sg14
S'preferences-desktop-wallpaper'
p502
sa(dp503
g4
S'Screen brightness and lock settings'
p504
sg6
S'Brightness & Lock'
p505
sg8
S'unity-control-center screen'
p506
sg10
S'false'
p507
sg12
S'GNOME;GTK;Settings;DesktopSettings;X-Unity-Settings-Panel;X-GNOME-PersonalSettings'
p508
sg14
S'system-lock-screen'
p509
sag116
a(dp510
g4
S'Online account credentials and settings'
p511
sg6
S'Online Accounts'
p512
sg8
S'credentials-preferences'
p513
sg10
S'false'
p514
sg12
S'GNOME;GTK;Settings;DesktopSettings;X-GNOME-PersonalSettings;'
p515
sg14
S'credentials-preferences'
p516
sa(dp517
g4
S'Online account credentials and settings'
p518
sg6
S'Online Accounts'
p519
sg8
S'unity-control-center credentials'
p520
sg10
S'false'
p521
sg12
S'GNOME;GTK;Settings;DesktopSettings;X-Unity-Settings-Panel;X-GNOME-PersonalSettings;'
p522
sg14
S'credentials-preferences'
p523
sag130
ag245
a(dp524
g4
S'Choose what applications to start when you log in'
p525
sg6
S'Startup Applications'
p526
sg8
S'gnome-session-properties'
p527
sg10
S'false'
p528
sg12
S'GTK;GNOME;Settings;X-GNOME-PersonalSettings;'
p529
sg14
S'session-properties'
p530
sa(dp531
g4
S'Change your keyboard or input method settings'
p532
sg6
S'Text Entry'
p533
sg8
S'unity-control-center region'
p534
sg10
S'false'
p535
sg12
S'GNOME;GTK;Settings;DesktopSettings;X-Unity-Settings-Panel;X-GNOME-PersonalSettings'
p536
sg14
S'preferences-desktop-keyboard-shortcuts'
p537
sasS'Presentation'
p538
(lp539
(dp540
g4
S'Create and edit presentations for slideshows, meeting and Web pages by using Impress.'
p541
sg6
S'LibreOffice Impress'
p542
sg8
S'libreoffice --impress %U'
p543
sg10
S'false'
p544
sg12
S'Office;Presentation;X-Red-Hat-Base;X-MandrivaLinux-Office-Presentations;'
p545
sg14
S'libreoffice-impress'
p546
sasS'Electronics'
p547
(lp548
(dp549
g4
S'Wake up in the morning'
p550
sg6
S'Arduino IDE'
p551
sg8
S'arduino'
p552
sg10
S'false'
p553
sg12
S'Development;Engineering;Electronics;'
p554
sg14
S'arduino'
p555
sasS'Math'
p556
(lp557
(dp558
g4
S'Create and edit scientific formulas and equations by using Math.'
p559
sg6
S'LibreOffice Math'
p560
sg8
S'libreoffice --math %U'
p561
sg10
S'false'
p562
sg12
S'Office;Education;Science;Math;X-Red-Hat-Base;X-MandrivaLinux-Office-Other;'
p563
sg14
S'libreoffice-math'
p564
sasS'Network'
p565
(lp566
g380
ag350
ag52
a(dp567
g4
S'Download and upload files via FTP, FTPS and SFTP'
p568
sg6
S'FileZilla'
p569
sg8
S'filezilla'
p570
sg10
S'false'
p571
sg12
S'Network;FileTransfer;'
p572
sg14
S'filezilla'
p573
sag387
ag394
a(dp574
g4
g559
sg6
S'JDownloader'
p575
sg8
S'jdownloader'
p576
sg10
g407
sg12
S'Network;FileTransfer'
p577
sg14
S'jdownloader'
p578
sa(dp579
g4
S'Read your email'
p580
sg6
S'Mail Reader'
p581
sg8
S'exo-open --launch MailReader %u'
p582
sg10
S'false'
p583
sg12
S'Network;X-XFCE;X-Xfce-Toplevel;'
p584
sg14
S'internet-mail'
p585
sag59
ag371
ag321
a(dp586
g4
S'Download and share files over BitTorrent'
p587
sg6
S'Transmission'
p588
sg8
S'transmission-gtk %U'
p589
sg10
S'false'
p590
sg12
S'Network;FileTransfer;P2P;GTK;'
p591
sg14
S'transmission'
p592
sa(dp593
g4
g266
sg6
S'Web Browser'
p594
sg8
S'exo-open --launch WebBrowser %u'
p595
sg10
S'false'
p596
sg12
S'Network;X-XFCE;X-Xfce-Toplevel;'
p597
sg14
S'web-browser'
p598
sasS'Development'
p599
(lp600
g549
a(dp601
g4
S'Python Interpreter (v2.7)'
p602
sg6
S'Python (v2.7)'
p603
sg8
S'/usr/bin/python2.7'
p604
sg10
S'true'
p605
sg12
S'Development;'
p606
sg14
S'/usr/share/pixmaps/python2.7.xpm'
p607
sa(dp608
g4
S'Python Interpreter (v3.4)'
p609
sg6
S'Python (v3.4)'
p610
sg8
S'/usr/bin/python3.4'
p611
sg10
S'true'
p612
sg12
S'Development;'
p613
sg14
S'/usr/share/pixmaps/python3.4.xpm'
p614
sa(dp615
g4
S'Browse the file system'
p616
sg6
S'Qt 4 Designer'
p617
sg8
S'/usr/bin/designer-qt4'
p618
sg10
S'false'
p619
sg12
S'Qt;Development;GUIDesigner;'
p620
sg14
S'designer-qt4'
p621
sa(dp622
g4
S'Sophisticated text editor for code, markup and prose'
p623
sg6
S'Sublime Text'
p624
sg8
S'/opt/sublime_text/sublime_text %F'
p625
sg10
S'false'
p626
sg12
S'TextEditor;Development;'
p627
sg14
S'sublime-text'
p628
sa(dp629
g4
S'Enhanced interactive Python shell'
p630
sg6
S'ipython'
p631
sg8
S'ipython'
p632
sg10
S'true'
p633
sg12
S'Development;Utility;'
p634
sg14
S'ipython'
p635
sasS'Core'
p636
(lp637
(dp638
g4
S'Access and organize files'
p639
sg6
S'Files'
p640
sg8
S'nautilus %U'
p641
sg10
S'false'
p642
sg12
S'GNOME;GTK;Utility;Core;'
p643
sg14
S'system-file-manager'
p644
sa(dp645
g4
S'Access and organize files'
p646
sg6
S'Files'
p647
sg8
S'nautilus --new-window %U'
p648
sg10
S'false'
p649
sg12
S'GNOME;GTK;Utility;Core;FileManager;'
p650
sg14
S'system-file-manager'
p651
sa(dp652
g4
S'Get help with Unity'
p653
sg6
S'Help'
p654
sg8
S'yelp %u'
p655
sg10
S'false'
p656
sg12
S'GNOME;GTK;Core;Documentation;Utility;'
p657
sg14
S'help-browser'
p658
sa(dp659
g4
S'Open your personal folder'
p660
sg6
S'Home Folder'
p661
sg8
S'nautilus --new-window %U'
p662
sg10
S'false'
p663
sg12
S'GNOME;GTK;Core;'
p664
sg14
S'folder'
p665
sag218
asS'Utility'
p666
(lp667
(dp668
g4
S'Manage Drives and Media'
p669
sg6
S'Account update tool'
p670
sg8
S'/usr/lib/x86_64-linux-gnu/update-accounts'
p671
sg10
S'false'
p672
sg12
S'GNOME;GTK;Utility;HardwareSettings;Settings;HardwareSettings;'
p673
sg14
S'gnome-disks'
p674
sa(dp675
g4
S'Configure what gets logged in your Zeitgeist activity log'
p676
sg6
S'Activity Log Manager'
p677
sg8
S'activity-log-manager'
p678
sg10
g663
sg12
S'GNOME;GTK;Utility;'
p679
sg14
S'activity-log-manager'
p680
sa(dp681
g4
g550
sg6
S'Alarm Clock'
p682
sg8
S'alarm-clock-applet'
p683
sg10
S'false'
p684
sg12
S'GNOME;GTK;Utility;'
p685
sg14
S'alarm-clock'
p686
sa(dp687
g4
g616
sg6
S'Amazon'
p688
sg8
S'unity-webapps-runner --amazon --app-id=ubuntu-amazon-default'
p689
sg10
S'false'
p690
sg12
S'Utility;X-XFCE;X-Xfce-Toplevel;'
p691
sg14
S'amazon-store'
p692
sa(dp693
g4
S'Create and modify an archive'
p694
sg6
S'Archive Manager'
p695
sg8
S'file-roller %U'
p696
sg10
S'false'
p697
sg12
S'GTK;GNOME;Utility;Archiving;Compression;'
p698
sg14
S'file-roller'
p699
sag98
a(dp700
g4
S'Program keyboard shortcuts'
p701
sg6
S'AutoKey'
p702
sg8
S'autokey-gtk -c'
p703
sg10
S'false'
p704
sg12
S'GNOME;GTK;Utility;'
p705
sg14
S'autokey'
p706
sag105
a(dp707
g4
S'Change your backup settings'
p708
sg6
S'Backups'
p709
sg8
S'unity-control-center deja-dup'
p710
sg10
g391
sg12
S'Settings;Utility;Archiving;GNOME;GTK;X-GNOME-SystemSettings;X-Unity-Settings-Panel;'
p711
sg14
S'deja-dup'
p712
sa(dp713
g4
S'Change your backup settings'
p714
sg6
S'Backups'
p715
sg8
S'deja-dup-preferences'
p716
sg10
S'false'
p717
sg12
S'Settings;Utility;Archiving;GNOME;GTK;X-GNOME-SystemSettings;'
p718
sg14
S'deja-dup'
p719
sa(dp720
g4
g322
sg6
S'Backups'
p721
sg8
S'deja-dup --backup'
p722
sg10
g325
sg12
S'Utility;Archiving;GNOME;GTK;'
p723
sg14
S'deja-dup'
p724
sag146
a(dp725
g4
S'Perform arithmetic, scientific or financial calculations'
p726
sg6
S'Calculator'
p727
sg8
S'gnome-calculator'
p728
sg10
S'false'
p729
sg12
S'GNOME;GTK;Utility;Calculator;'
p730
sg14
S'accessories-calculator'
p731
sa(dp732
g4
S'Insert special characters into documents'
p733
sg6
S'Character Map'
p734
sg8
S'gucharmap'
p735
sg10
S'false'
p736
sg12
S'GNOME;GTK;Utility;'
p737
sg14
S'accessories-character-map'
p738
sa(dp739
g4
S'Manage your network connections'
p740
sg6
S'Connect to Server'
p741
sg8
S'nautilus-connect-server'
p742
sg10
S'false'
p743
sg12
g730
sg14
S'applications-internet'
p744
sa(dp745
g4
g239
sg6
S'Contacts'
p746
sg8
S'gnome-contacts'
p747
sg10
S'false'
p748
sg12
S'GNOME;GTK;Utility;'
p749
sg14
S'x-office-address-book'
p750
sa(dp751
g4
g669
sg6
S'Disks'
p752
sg8
S'gnome-disks'
p753
sg10
g672
sg12
g673
sg14
g674
sa(dp754
g4
g616
sg6
S'File Manager'
p755
sg8
S'exo-open --launch FileManager %u'
p756
sg10
g690
sg12
g691
sg14
S'system-file-manager'
p757
sag638
ag645
a(dp758
g4
S'View fonts on your system'
p759
sg6
S'Font Viewer'
p760
sg8
S'gnome-font-viewer %u'
p761
sg10
S'false'
p762
sg12
S'GTK;GNOME;Utility;'
p763
sg14
S'preferences-desktop-font'
p764
sag652
a(dp765
g4
g740
sg6
S'Network'
p766
sg8
S'nm-applet'
p767
sg10
S'false'
p768
sg12
g730
sg14
S'nm-device-wireless'
p769
sag231
a(dp770
g4
S'Flexible onscreen keyboard for GNOME'
p771
sg6
S'Onboard'
p772
sg8
S'onboard'
p773
sg10
S'false'
p774
sg12
S'Utility;Accessibility;'
p775
sg14
S'onboard'
p776
sa(dp777
g4
S'OpenJDK Java 7 Runtime'
p778
sg6
S'OpenJDK Java 7 Runtime'
p779
sg8
S'cautious-launcher %f /usr/bin/java -jar'
p780
sg10
S'false'
p781
sg12
g723
sg14
S'openjdk-7'
p782
sa(dp783
g4
S'Report a malfunction to the developers'
p784
sg6
S'Report a problem...'
p785
sg8
S'/usr/share/apport/apport-gtk -c %f'
p786
sg10
S'false'
p787
sg12
S'GNOME;GTK;Utility;'
p788
sg14
S'apport'
p789
sa(dp790
g4
g740
sg6
S'Run Software'
p791
sg8
S'nautilus-autorun-software %u'
p792
sg10
S'false'
p793
sg12
g730
sg14
S'application-x-executable'
p794
sa(dp795
g4
S'Provide access to graphical desktop environments via synthesized speech and/or refreshable braille'
p796
sg6
S'Screen Reader'
p797
sg8
S'orca --replace'
p798
sg10
S'false'
p799
sg12
S'GTK;GNOME;Utility;Accessibility;'
p800
sg14
S'orca'
p801
sa(dp802
g4
S'Save images of your screen or individual windows'
p803
sg6
S'Screenshot'
p804
sg8
S'gnome-screenshot --interactive'
p805
sg10
S'false'
p806
sg12
S'GTK;GNOME;Utility;'
p807
sg14
S'applets-screenshooter'
p808
sag130
ag245
ag403
a(dp809
g4
S'Use the command line'
p810
sg6
S'Terminal Emulator'
p811
sg8
S'exo-open --launch TerminalEmulator'
p812
sg10
S'false'
p813
sg12
S'Utility;X-XFCE;X-Xfce-Toplevel;'
p814
sg14
S'utilities-terminal'
p815
sa(dp816
g4
S'Change your clock and date settings'
p817
sg6
S'Time & Date'
p818
sg8
S'unity-control-center datetime'
p819
sg10
S'false'
p820
sg12
S'GNOME;GTK;Utility;DesktopSettings;Settings;X-GNOME-SystemSettings;X-Unity-Settings-Panel;'
p821
sg14
S'unity-datetime-panel'
p822
sag278
a(dp823
g4
S'Command your PC speaking commands'
p824
sg6
S'Voice commands'
p825
sg8
S'voice-commands'
p826
sg10
S'false'
p827
sg12
S'GTK;GNOME;Utility;Accessibility;'
p828
sg14
S'gnome-sound-recorder'
p829
sag298
a(dp830
g4
S'Edit text files'
p831
sg6
S'gedit'
p832
sg8
S'gedit %U'
p833
sg10
S'false'
p834
sg12
S'GNOME;GTK;Utility;TextEditor;'
p835
sg14
S'accessories-text-editor'
p836
sag629
asS'Audio'
p837
(lp838
g412
ag439
ag445
asS'X-GNOME-SystemSettings'
p839
(lp840
g98
ag105
ag707
ag713
a(dp841
g4
S'System Information'
p842
sg6
S'Details'
p843
sg8
S'unity-control-center info'
p844
sg10
S'false'
p845
sg12
S'GNOME;GTK;Settings;X-GNOME-SystemSettings;X-Unity-Settings-Panel;'
p846
sg14
S'applications-system'
p847
sa(dp848
g4
S'Write Disk Images to Devices'
p849
sg6
S'Disk Image Writer'
p850
sg8
S'gnome-disks --restore-disk-image %U'
p851
sg10
S'false'
p852
sg12
S'GNOME;GTK;Settings;X-GNOME-SystemSettings;'
p853
sg14
S'drive-removable-media'
p854
sag109
ag137
a(dp855
g4
S'Configure the sources for installable software and updates'
p856
sg6
S'Software & Updates'
p857
sg8
S'software-properties-gtk'
p858
sg10
S'false'
p859
sg12
g853
sg14
S'software-properties'
p860
sag816
a(dp861
g4
S'Universal Access Preferences'
p862
sg6
S'Universal Access'
p863
sg8
S'unity-control-center universal-access'
p864
sg10
S'false'
p865
sg12
S'GNOME;GTK;Settings;X-GNOME-SystemSettings;X-Unity-Settings-Panel;'
p866
sg14
S'preferences-desktop-accessibility'
p867
sag289
asS'X-MandrivaLinux-Office-Other'
p868
(lp869
(dp870
g4
S'The office productivity suite compatible to the open and standardized ODF document format. Supported by The Document Foundation.'
p871
sg6
S'LibreOffice'
p872
sg8
S'libreoffice %U'
p873
sg10
S'false'
p874
sg12
S'Office;X-Red-Hat-Base;X-SuSE-Core-Office;X-MandrivaLinux-Office-Other;'
p875
sg14
S'libreoffice-startcenter'
p876
sag558
asS'Photography'
p877
(lp878
(dp879
g4
S'Network settings'
p880
sg6
S'Photos lens for Unity'
p881
sg8
S'unity-control-center network'
p882
sg10
S'false'
p883
sg12
S'Photography;'
p884
sg14
S'unity-lens-photos'
p885
sa(dp886
g4
S'Organize your photos'
p887
sg6
S'Shotwell'
p888
sg8
S'shotwell %U'
p889
sg10
S'false'
p890
sg12
S'Graphics;Photography;GNOME;GTK;'
p891
sg14
S'shotwell'
p892
sa(dp893
g4
g76
sg6
S'Shotwell Viewer'
p894
sg8
S'shotwell %f'
p895
sg10
S'false'
p896
sg12
S'Graphics;Viewer;Photography;GNOME;GTK;'
p897
sg14
S'shotwell'
p898
sasS'Email'
p899
(lp900
g321
asS'Game'
p901
(lp902
(dp903
g4
S'Play many different solitaire games'
p904
sg6
S'AisleRiot Solitaire'
p905
sg8
S'/usr/games/sol'
p906
sg10
S'false'
p907
sg12
S'GNOME;GTK;Game;CardGame;'
p908
sg14
S'gnome-aisleriot'
p909
sa(dp910
g4
S'A single player, 2D-isometric, action Role-Playing Game'
p911
sg6
S'Flare'
p912
sg8
S'/usr/games/flare'
p913
sg10
S'false'
p914
sg12
S'Game;RolePlaying;'
p915
sg14
S'flare'
p916
sa(dp917
g4
S'Set ibus-Bopomofo Preferences'
p918
sg6
S'IBus Bopomofo Preferences'
p919
sg8
S'/usr/lib/ibus/ibus-setup-pinyin bopomofo'
p920
sg10
S'false'
p921
sg12
S'GNOME;GTK;Game;BoardGame;'
p922
sg14
S'/usr/share/ibus-pinyin/icons/ibus-bopomofo.svg'
p923
sa(dp924
g4
S'Disassemble a pile of tiles by removing matching pairs'
p925
sg6
S'Mahjongg'
p926
sg8
S'gnome-mahjongg'
p927
sg10
g921
sg12
g922
sg14
S'gnome-mahjongg'
p928
sa(dp929
g4
S'Clear hidden mines from a minefield'
p930
sg6
S'Mines'
p931
sg8
S'gnome-mines'
p932
sg10
g134
sg12
S'GNOME;GTK;Game;LogicGame;'
p933
sg14
S'gnome-mines'
p934
sa(dp935
g4
S'Test your logic skills in this number grid puzzle'
p936
sg6
S'Sudoku'
p937
sg8
S'gnome-sudoku'
p938
sg10
g717
sg12
S'GNOME;GTK;Game;LogicGame;'
p939
sg14
S'gnome-sudoku'
p940
sasS'XFCE'
p941
(lp942
(dp943
g4
S'Preferred Applications (Web Browser, Mail Reader and Terminal Emulator)'
p944
sg6
S'Preferred Applications'
p945
sg8
S'exo-preferred-applications'
p946
sg10
S'false'
p947
sg12
S'XFCE;GTK;Settings;DesktopSettings;X-XFCE-SettingsDialog;X-XFCE-PersonalSettings;'
p948
sg14
S'preferences-desktop-default-applications'
p949
sasS'X-Unity-Settings-Panel'
p950
(lp951
(dp952
g4
S'Login to online accounts'
p953
sg6
S'Account authentication'
p954
sg8
S'/usr/lib/x86_64-linux-gnu/signon-ui/browser-process'
p955
sg10
g249
sg12
S'GNOME;GTK;Settings;HardwareSettings;X-Unity-Settings-Panel;'
p956
sg14
S''
p957
sag496
ag707
ag343
ag503
a(dp958
g4
S'Color management settings'
p959
sg6
S'Color'
p960
sg8
S'unity-control-center color'
p961
sg10
S'false'
p962
sg12
S'GNOME;GTK;Settings;X-Unity-Settings-Panel;HardwareSettings'
p963
sg14
S'unity-color-panel'
p964
sa(dp965
g4
S'Set your mouse and touchpad preferences'
p966
sg6
S'Compiz'
p967
sg8
S'compiz'
p968
sg10
S'false'
p969
sg12
S'GNOME;GTK;Settings;HardwareSettings;X-Unity-Settings-Panel;'
p970
sg14
S'input-mouse'
p971
sag841
a(dp972
g4
S'Change resolution and position of monitors and projectors'
p973
sg6
S'Displays'
p974
sg8
S'unity-control-center display'
p975
sg10
g108
sg12
S'GNOME;GTK;Settings;HardwareSettings;X-Unity-Settings-Panel;'
p976
sg14
S'unity-display-panel'
p977
sa(dp978
g4
S'Change keyboard settings'
p979
sg6
S'Keyboard'
p980
sg8
S'unity-control-center keyboard'
p981
sg10
S'false'
p982
sg12
S'GNOME;GTK;Settings;HardwareSettings;X-Unity-Settings-Panel;'
p983
sg14
S'input-keyboard'
p984
sag109
ag116
a(dp985
g4
g966
sg6
S'Mouse & Touchpad'
p986
sg8
S'unity-control-center mouse'
p987
sg10
g969
sg12
g970
sg14
g971
sa(dp988
g4
g880
sg6
S'Network'
p989
sg8
g882
sg10
S'false'
p990
sg12
S'GNOME;GTK;Settings;HardwareSettings;X-Unity-Settings-Panel;'
p991
sg14
S'network-workgroup'
p992
sag517
a(dp993
g4
S'Power management settings'
p994
sg6
S'Power'
p995
sg8
S'unity-control-center power'
p996
sg10
S'false'
p997
sg12
S'GNOME;GTK;Settings;DesktopSettings;X-Unity-Settings-Panel;HardwareSettings'
p998
sg14
S'unity-power-panel'
p999
sag123
ag245
ag137
a(dp1000
g4
S'Change sound volume and sound events'
p1001
sg6
S'Sound'
p1002
sg8
S'unity-control-center sound'
p1003
sg10
S'false'
p1004
sg12
S'GNOME;GTK;Settings;HardwareSettings;X-Unity-Settings-Panel;'
p1005
sg14
S'unity-sound-panel'
p1006
sag531
ag816
ag861
ag289
a(dp1007
g4
S'Set button mappings and adjust stylus sensitivity for graphics tablets'
p1008
sg6
S'Wacom Tablet'
p1009
sg8
S'unity-control-center wacom'
p1010
sg10
S'false'
p1011
sg12
g956
sg14
S'input-tablet'
p1012
sasS'HardwareSettings'
p1013
(lp1014
g952
ag668
ag668
a(dp1015
g4
S'Configure third-party and proprietary drivers'
p1016
sg6
S'Additional Drivers'
p1017
sg8
S'/usr/bin/software-properties-gtk --open-tab=4'
p1018
sg10
S'false'
p1019
sg12
S'X-XFCE;GTK;Settings;HardwareSettings'
p1020
sg14
S'jockey'
p1021
sag343
a(dp1022
g4
S'Setup Bluetooth devices'
p1023
sg6
S'Bluetooth Device Setup'
p1024
sg8
S'bluetooth-wizard'
p1025
sg10
S'false'
p1026
sg12
S'GTK;GNOME;Settings;HardwareSettings;'
p1027
sg14
S'bluetooth'
p1028
sag958
ag965
ag751
ag751
ag972
ag978
a(dp1029
g4
g1023
sg6
S'LibreOffice XSLT based filters'
p1030
sg8
S'libreoffice %U'
p1031
sg10
S'false'
p1032
sg12
g1027
sg14
g1028
sag985
ag988
ag993
ag123
ag1000
ag258
ag1007
asS'X-XFCE-PersonalSettings'
p1033
(lp1034
g943
asS'PackageManager'
p1035
(lp1036
g285
asS'X-MandrivaLinux-Office-Presentations'
p1037
(lp1038
g540
asS'RolePlaying'
p1039
(lp1040
g910
asS'X-Red-Hat-Base'
p1041
(lp1042
g3
ag870
a(dp1043
g4
S'Perform calculations, analyze information and manage lists in spreadsheets by using Calc.'
p1044
sg6
S'LibreOffice Calc'
p1045
sg8
S'libreoffice --calc %U'
p1046
sg10
S'false'
p1047
sg12
S'Office;Spreadsheet;X-Red-Hat-Base;X-MandrivaLinux-Office-Spreadsheets;'
p1048
sg14
S'libreoffice-calc'
p1049
sag23
ag540
ag558
ag485
asS'Documentation'
p1050
(lp1051
g652
asS'CardGame'
p1052
(lp1053
g903
asS'Qt'
p1054
(lp1055
g426
ag615
ag272
asS'Settings'
p1056
(lp1057
g178
ag952
ag668
ag1015
ag496
ag98
ag105
ag707
ag713
ag343
ag1022
ag503
ag958
ag965
a(dp1058
g4
S'Classic session desktop file for desktop icons'
p1059
sg6
S'Desktop Icons'
p1060
sg8
S'nautilus --no-default-window --force-desktop'
p1061
sg10
S'false'
p1062
sg12
S'Settings;'
p1063
sg14
S'ibus-setup'
p1064
sag350
ag841
ag848
ag751
ag972
ag211
a(dp1065
g4
S'Set Keyboard Input Method'
p1066
sg6
S'Input Method'
p1067
sg8
S'im-config'
p1068
sg10
S'false'
p1069
sg12
S'Settings'
p1070
sg14
S'input-keyboard'
p1071
sag978
a(dp1072
g4
S'Adjust methods for keyboard input.'
p1073
sg6
S'Keyboard Input Methods'
p1074
sg8
S'ibus-setup'
p1075
sg10
g1062
sg12
g1063
sg14
g1064
sag109
ag116
ag1029
ag985
ag224
ag988
ag357
a(dp1076
g4
S'Change Onboard settings'
p1077
sg6
S'Onboard Settings'
p1078
sg8
S'onboard-settings'
p1079
sg10
S'false'
p1080
sg12
S'Settings;Accessibility;'
p1081
sg14
S'onboard'
p1082
sag510
ag517
a(dp1083
g4
S'OpenJDK Java 7 Policy Tool'
p1084
sg6
S'OpenJDK Java 7 Policy Tool'
p1085
sg8
S'/usr/bin/policytool'
p1086
sg10
S'false'
p1087
sg12
S'Settings;'
p1088
sg14
S'openjdk-7'
p1089
sa(dp1090
g4
S'Manage your passwords and encryption keys'
p1091
sg6
S'Passwords and Keys'
p1092
sg8
S'/usr/bin/seahorse'
p1093
sg10
S'false'
p1094
sg12
S'GNOME;GTK;Security;Settings;DesktopSettings;X-XFCE-SettingsDialog;'
p1095
sg14
S'seahorse'
p1096
sag364
ag993
ag943
ag123
ag130
ag245
ag137
ag855
ag252
ag1000
ag524
ag258
ag531
ag816
ag285
ag861
ag289
ag1007
ag305
asS'Science'
p1097
(lp1098
g558
a(dp1099
g4
S'View the periodic table of elements'
p1100
sg6
S'Periodic Table'
p1101
sg8
S'gelemental'
p1102
sg10
g820
sg12
S'GTK;Education;Science;Chemistry;'
p1103
sg14
S'gelemental'
p1104
sasS'Archiving'
p1105
(lp1106
g693
ag98
ag105
ag707
ag713
ag720
ag777
ag130
ag245
asS'GTK'
p1107
(lp1108
g952
ag668
ag675
ag1015
ag903
ag681
ag496
ag693
ag98
ag412
ag700
ag105
ag707
ag713
ag720
ag343
ag1022
ag146
ag38
ag503
ag192
ag725
ag732
ag958
ag965
ag739
ag745
ag350
ag841
ag848
ag199
ag751
ag972
ag16
ag52
ag206
ag638
ag645
ag387
ag758
ag68
ag652
ag659
ag917
ag169
ag978
ag218
ag109
ag116
ag1029
ag924
ag929
ag985
ag988
ag765
ag357
ag231
ag510
ag517
ag777
ag1090
ag1099
ag993
ag75
ag943
ag29
ag123
ag439
ag371
ag783
ag445
ag452
ag790
ag795
ag802
ag130
ag245
ag886
ag893
a(dp1109
g4
S'Scan Documents'
p1110
sg6
S'Simple Scan'
p1111
sg8
S'simple-scan'
p1112
sg10
S'false'
p1113
sg12
S'GNOME;GTK;Graphics;Scanning;'
p1114
sg14
S'scanner'
p1115
sag137
ag855
ag1000
ag524
ag258
ag935
ag82
ag89
ag265
ag403
ag531
ag816
ag586
ag285
ag45
ag861
ag466
ag296
ag823
ag1007
ag830
asS'X-MandrivaLinux-Office-Spreadsheets'
p1116
(lp1117
g1043
asS'X-MandrivaLinux-Office-Drawing'
p1118
(lp1119
g3
ag23
asS'Mixer'
p1120
(lp1121
g439
asS'Spreadsheet'
p1122
(lp1123
g1043
asS'DesktopSettings'
p1124
(lp1125
g496
ag503
ag116
ag510
ag517
ag1090
ag993
ag943
ag531
ag816
asS'X-Xfce-Toplevel'
p1126
(lp1127
g687
ag754
ag579
ag809
ag593
asS'Printing'
p1128
(lp1129
g123
asS'TextEditor'
p1130
(lp1131
g622
ag830
asS'Graphics'
p1132
(lp1133
g314
ag3
ag16
ag162
ag169
a(dp1134
g4
S'Display and edit image files'
p1135
sg6
S'ImageMagick (display)'
p1136
sg8
S'/usr/bin/display.im6 %f'
p1137
sg10
S'false'
p1138
sg12
S'Graphics;'
p1139
sg14
S'display.im6'
p1140
sag23
ag29
ag886
ag893
ag1109
asS'BoardGame'
p1141
(lp1142
g917
ag924
asS'Filesystem'
p1143
(lp1144
g199
ag211
asS'Security'
p1145
(lp1146
g1090
asS'Chemistry'
p1147
(lp1148
g1099
asS'Office'
p1149
(lp1150
g3
ag16
a(dp1151
g4
g372
sg6
S'Google Drive scope for Unity'
p1152
sg8
g957
sg10
S'false'
p1153
sg12
S'Office;'
p1154
sg14
S'unity-scope-gdrive'
p1155
sag870
ag1043
ag23
ag540
ag558
ag485
ag29
asS'LogicGame'
p1156
(lp1157
g929
ag935
asS'GNOME'
p1158
(lp1159
g952
ag668
ag675
ag903
ag681
ag496
ag693
ag98
ag700
ag105
ag707
ag713
ag720
ag343
ag1022
ag146
ag38
ag503
ag192
ag725
ag732
ag419
ag958
ag965
ag739
ag745
ag350
ag841
ag848
ag199
ag751
ag972
ag16
ag52
ag206
ag638
ag645
ag387
ag758
ag68
ag211
ag652
ag659
ag917
ag169
ag978
ag218
ag109
ag116
ag1029
ag924
ag929
ag985
ag988
ag765
ag357
ag231
ag510
ag517
ag777
ag1090
ag364
ag993
ag75
ag29
ag123
ag371
ag783
ag445
ag452
ag790
ag795
ag802
ag130
ag245
ag886
ag893
ag1109
ag137
ag855
ag1000
ag524
ag935
ag82
ag89
ag265
ag403
ag531
ag816
ag45
ag861
ag466
ag296
ag823
ag1007
ag830
ag477
asS'Scanning'
p1160
(lp1161
g1109
asS'Compression'
p1162
(lp1163
g693
asS'X-MandrivaLinux-Office-Wordprocessors'
p1164
(lp1165
g485
asS'X-SuSE-Core-Office'
p1166
(lp1167
g870
asS'Viewer'
p1168
(lp1169
g314
ag16
ag169
ag29
ag893
asS'Calculator'
p1170
(lp1171
g725
ag739
ag765
ag790
asS'2DGraphics'
p1172
(lp1173
g3
ag16
ag162
ag169
ag23
ag29
asS'FileManager'
p1174
(lp1175
g645
ag153
asS'Accessibility'
p1176
(lp1177
g770
ag1076
ag795
ag823
asS'X-XFCE'
p1178
(lp1179
g1015
ag687
ag754
ag579
ag809
ag593
asS'Player'
p1180
(lp1181
g412
ag426
ag445
ag459
ag466
asS'Engineering'
p1182
(lp1183
g549
asS'FileTransfer'
p1184
(lp1185
g567
ag574
ag586
asS'Video'
p1186
(lp1187
g419
ag466
asS'AudioVideoEditing'
p1188
(lp1189
g433
ag473
ag477
asS'FlowChart'
p1190
(lp1191
g3
ag23
asS'X-XFCE-SettingsDialog'
p1192
(lp1193
g1090
ag943
asS'Education'
p1194
(lp1195
g558
ag1099
asS'RemoteAccess'
p1196
(lp1197
g350
asS'GUIDesigner'
p1198
(lp1199
g615
asS'P2P'
p1200
(lp1201
g586
as.